; Function Attrs: mustprogress uwtable
define hidden void @_ZN10duckdb_re23DFA8RWLockerC2EPNS_5MutexE(ptr noundef nonnull writeonly align 8 captures(none) dereferenceable(9) initializes((0, 9)) %0, ptr noundef %1) unnamed_addr #1 align 2 personality ptr @__gxx_personality_v0 {
  store ptr %1, ptr %0, align 8, !tbaa !154
  %3 = getelementptr inbounds nuw i8, ptr %0, i64 8
  store i8 0, ptr %3, align 8, !tbaa !156
  %4 = tail call i32 @pthread_rwlock_rdlock(ptr noundef nonnull align 8 dereferenceable(56) %1) #20
  %.not.i = icmp eq i32 %4, 0
  br i1 %.not.i, label %_ZN10duckdb_re25Mutex10ReaderLockEv.exit, label %5

5:                                                ; preds = %2
  %6 = tail call ptr @__cxa_allocate_exception(i64 16) #20
  invoke void @_ZNSt13runtime_errorC1EPKc(ptr noundef nonnull align 8 dereferenceable(16) %6, ptr noundef nonnull @.str.18)
          to label %7 unwind label %8

7:                                                ; preds = %5
  tail call void @__cxa_throw(ptr nonnull %6, ptr nonnull @_ZTISt13runtime_error, ptr nonnull @_ZNSt13runtime_errorD1Ev) #21
  unreachable

8:                                                ; preds = %5
  %9 = landingpad { ptr, i32 }
          cleanup
  tail call void @__cxa_free_exception(ptr nonnull %6) #20
  resume { ptr, i32 } %9

_ZN10duckdb_re25Mutex10ReaderLockEv.exit:         ; preds = %2
  ret void
}